; Function Attrs: mustprogress uwtable
define void @_ZN5faiss10IndexNSGPQC2Eiiii(ptr noundef nonnull align 8 dereferenceable(5132) %0, i32 noundef %1, i32 noundef %2, i32 noundef %3, i32 noundef %4) unnamed_addr #1 align 2 personality ptr @__gxx_personality_v0 {
  %6 = tail call noalias noundef nonnull dereferenceable(400) ptr @_Znwm(i64 noundef 400) #21
  %7 = sext i32 %2 to i64
  %8 = sext i32 %4 to i64
  invoke void @_ZN5faiss7IndexPQC1EimmNS_10MetricTypeE(ptr noundef nonnull align 8 dereferenceable(396) %6, i32 noundef %1, i64 noundef %7, i64 noundef %8, i32 noundef 1)
          to label %9 unwind label %29

9:                                                ; preds = %5
  %10 = getelementptr inbounds i8, ptr %6, i64 8
  %11 = load i32, ptr %10, align 8
  %12 = getelementptr inbounds i8, ptr %6, i64 28
  %13 = load i32, ptr %12, align 4
  %14 = getelementptr inbounds i8, ptr %0, i64 8
  store i32 %11, ptr %14, align 8
  %15 = getelementptr inbounds i8, ptr %0, i64 16
  store i64 0, ptr %15, align 8
  %16 = getelementptr inbounds i8, ptr %0, i64 24
  store i8 0, ptr %16, align 8
  %17 = getelementptr inbounds i8, ptr %0, i64 25
  store i8 1, ptr %17, align 1
  %18 = getelementptr inbounds i8, ptr %0, i64 28
  store i32 %13, ptr %18, align 4
  %19 = getelementptr inbounds i8, ptr %0, i64 32
  store float 0.000000e+00, ptr %19, align 8
  store ptr getelementptr inbounds ({ [24 x ptr] }, ptr @_ZTVN5faiss8IndexNSGE, i64 0, i32 0, i64 2), ptr %0, align 8
  %20 = getelementptr inbounds i8, ptr %0, i64 40
  invoke void @_ZN5faiss3NSGC1Ei(ptr noundef nonnull align 8 dereferenceable(5048) %20, i32 noundef %3)
          to label %_ZN5faiss8IndexNSGC2EPNS_5IndexEi.exit unwind label %21

common.resume:                                    ; preds = %29, %21
  %common.resume.op = phi { ptr, i32 } [ %22, %21 ], [ %30, %29 ]
  resume { ptr, i32 } %common.resume.op

21:                                               ; preds = %9
  %22 = landingpad { ptr, i32 }
          cleanup
  tail call void @_ZN5faiss5IndexD2Ev(ptr noundef nonnull align 8 dereferenceable(36) %0) #8
  br label %common.resume

_ZN5faiss8IndexNSGC2EPNS_5IndexEi.exit:           ; preds = %9
  %23 = getelementptr inbounds i8, ptr %0, i64 5088
  %24 = getelementptr inbounds i8, ptr %0, i64 5096
  store ptr %6, ptr %24, align 8
  %25 = getelementptr inbounds i8, ptr %0, i64 5104
  store i8 0, ptr %25, align 8
  %26 = getelementptr inbounds i8, ptr %0, i64 5108
  store i32 64, ptr %26, align 4
  %27 = getelementptr inbounds i8, ptr %0, i64 5112
  store i8 1, ptr %27, align 8
  %28 = getelementptr inbounds i8, ptr %0, i64 5116
  store <4 x i32> <i32 10, i32 100, i32 114, i32 10>, ptr %28, align 4
  store ptr getelementptr inbounds ({ [24 x ptr] }, ptr @_ZTVN5faiss10IndexNSGPQE, i64 0, i32 0, i64 2), ptr %0, align 8
  store i8 1, ptr %23, align 8
  store i8 0, ptr %17, align 1
  ret void

29:                                               ; preds = %5
  %30 = landingpad { ptr, i32 }
          cleanup
  tail call void @_ZdlPv(ptr noundef nonnull %6) #19
  br label %common.resume
}